; Function Attrs: alwaysinline norecurse nounwind uwtable
define internal void @_ZNK4ncnn18Packing_x86_avx51212forward_int8ERKNS_3MatERS1_RKNS_6OptionE.omp_outlined(ptr noalias noundef readonly captures(none) %0, ptr noalias readnone captures(none) %1, ptr noundef nonnull readonly align 4 captures(none) dereferenceable(4) %2, ptr noundef nonnull readonly align 8 captures(none) dereferenceable(72) %3, ptr noundef nonnull readonly align 8 captures(none) dereferenceable(72) %4, ptr noundef nonnull readonly align 4 captures(none) dereferenceable(4) %5) #8 personality ptr @__gxx_personality_v0 {
  %7 = alloca i32, align 4
  %8 = alloca i32, align 4
  %9 = alloca i32, align 4
  %10 = alloca i32, align 4
  %11 = load i32, ptr %2, align 4, !tbaa !42
  %12 = icmp sgt i32 %11, 0
  br i1 %12, label %13, label %94

13:                                               ; preds = %6
  %14 = add nsw i32 %11, -1
  call void @llvm.lifetime.start.p0(i64 4, ptr nonnull %7) #6
  store i32 0, ptr %7, align 4, !tbaa !42
  call void @llvm.lifetime.start.p0(i64 4, ptr nonnull %8) #6
  store i32 %14, ptr %8, align 4, !tbaa !42
  call void @llvm.lifetime.start.p0(i64 4, ptr nonnull %9) #6
  store i32 1, ptr %9, align 4, !tbaa !42
  call void @llvm.lifetime.start.p0(i64 4, ptr nonnull %10) #6
  store i32 0, ptr %10, align 4, !tbaa !42
  %15 = load i32, ptr %0, align 4, !tbaa !42
  call void @__kmpc_for_static_init_4(ptr nonnull @1, i32 %15, i32 34, ptr nonnull %10, ptr nonnull %7, ptr nonnull %8, ptr nonnull %9, i32 1, i32 1)
  %16 = load i32, ptr %8, align 4, !tbaa !42
  %17 = call i32 @llvm.smin.i32(i32 %16, i32 %14)
  store i32 %17, ptr %8, align 4, !tbaa !42
  %18 = load i32, ptr %7, align 4, !tbaa !42
  %.not70 = icmp sgt i32 %18, %17
  br i1 %.not70, label %._crit_edge74, label %.lr.ph73

.lr.ph73:                                         ; preds = %13
  %19 = getelementptr inbounds nuw i8, ptr %3, i64 44
  %20 = getelementptr inbounds nuw i8, ptr %3, i64 16
  %21 = getelementptr inbounds nuw i8, ptr %4, i64 44
  %22 = getelementptr inbounds nuw i8, ptr %4, i64 16
  %23 = sext i32 %18 to i64
  %.pre = load i32, ptr %5, align 4, !tbaa !42
  br label %24

24:                                               ; preds = %.lr.ph73, %._crit_edge
  %25 = phi i32 [ %17, %.lr.ph73 ], [ %91, %._crit_edge ]
  %26 = phi i32 [ %.pre, %.lr.ph73 ], [ %92, %._crit_edge ]
  %indvars.iv = phi i64 [ %23, %.lr.ph73 ], [ %indvars.iv.next, %._crit_edge ]
  %27 = icmp sgt i32 %26, 0
  br i1 %27, label %.lr.ph.preheader, label %._crit_edge

.lr.ph.preheader:                                 ; preds = %24
  %28 = load ptr, ptr %4, align 8, !tbaa !33
  %29 = load i32, ptr %21, align 4, !tbaa !38
  %30 = sext i32 %29 to i64
  %31 = mul nsw i64 %indvars.iv, %30
  %32 = load i64, ptr %22, align 8, !tbaa !13
  %33 = mul i64 %31, %32
  %34 = getelementptr inbounds nuw i8, ptr %28, i64 %33
  %35 = load ptr, ptr %3, align 8, !tbaa !33
  %36 = load i64, ptr %20, align 8, !tbaa !13
  %37 = load i32, ptr %19, align 4, !tbaa !38
  %38 = sext i32 %37 to i64
  %39 = mul i64 %36, %38
  %40 = shl nsw i64 %indvars.iv, 3
  %41 = or disjoint i64 %40, 7
  %42 = mul i64 %39, %41
  %43 = getelementptr inbounds nuw i8, ptr %35, i64 %42
  %44 = or disjoint i64 %40, 6
  %45 = mul i64 %39, %44
  %46 = getelementptr inbounds nuw i8, ptr %35, i64 %45
  %47 = or disjoint i64 %40, 5
  %48 = mul i64 %39, %47
  %49 = getelementptr inbounds nuw i8, ptr %35, i64 %48
  %50 = or disjoint i64 %40, 4
  %51 = mul i64 %39, %50
  %52 = getelementptr inbounds nuw i8, ptr %35, i64 %51
  %53 = or disjoint i64 %40, 3
  %54 = mul i64 %39, %53
  %55 = getelementptr inbounds nuw i8, ptr %35, i64 %54
  %56 = or disjoint i64 %40, 2
  %57 = mul i64 %39, %56
  %58 = getelementptr inbounds nuw i8, ptr %35, i64 %57
  %59 = or disjoint i64 %40, 1
  %60 = mul i64 %39, %59
  %61 = getelementptr inbounds nuw i8, ptr %35, i64 %60
  %62 = mul i64 %39, %40
  %63 = getelementptr inbounds nuw i8, ptr %35, i64 %62
  br label %.lr.ph

.lr.ph:                                           ; preds = %.lr.ph.preheader, %.lr.ph
  %.069 = phi i32 [ %88, %.lr.ph ], [ 0, %.lr.ph.preheader ]
  %.05068 = phi ptr [ %87, %.lr.ph ], [ %34, %.lr.ph.preheader ]
  %.05167 = phi ptr [ %84, %.lr.ph ], [ %43, %.lr.ph.preheader ]
  %.05266 = phi ptr [ %81, %.lr.ph ], [ %46, %.lr.ph.preheader ]
  %.05365 = phi ptr [ %78, %.lr.ph ], [ %49, %.lr.ph.preheader ]
  %.05464 = phi ptr [ %75, %.lr.ph ], [ %52, %.lr.ph.preheader ]
  %.05563 = phi ptr [ %72, %.lr.ph ], [ %55, %.lr.ph.preheader ]
  %.05662 = phi ptr [ %69, %.lr.ph ], [ %58, %.lr.ph.preheader ]
  %.05761 = phi ptr [ %66, %.lr.ph ], [ %61, %.lr.ph.preheader ]
  %.05860 = phi ptr [ %64, %.lr.ph ], [ %63, %.lr.ph.preheader ]
  %64 = getelementptr inbounds nuw i8, ptr %.05860, i64 1
  %65 = load i8, ptr %.05860, align 1, !tbaa !47
  store i8 %65, ptr %.05068, align 1, !tbaa !47
  %66 = getelementptr inbounds nuw i8, ptr %.05761, i64 1
  %67 = load i8, ptr %.05761, align 1, !tbaa !47
  %68 = getelementptr inbounds nuw i8, ptr %.05068, i64 1
  store i8 %67, ptr %68, align 1, !tbaa !47
  %69 = getelementptr inbounds nuw i8, ptr %.05662, i64 1
  %70 = load i8, ptr %.05662, align 1, !tbaa !47
  %71 = getelementptr inbounds nuw i8, ptr %.05068, i64 2
  store i8 %70, ptr %71, align 1, !tbaa !47
  %72 = getelementptr inbounds nuw i8, ptr %.05563, i64 1
  %73 = load i8, ptr %.05563, align 1, !tbaa !47
  %74 = getelementptr inbounds nuw i8, ptr %.05068, i64 3
  store i8 %73, ptr %74, align 1, !tbaa !47
  %75 = getelementptr inbounds nuw i8, ptr %.05464, i64 1
  %76 = load i8, ptr %.05464, align 1, !tbaa !47
  %77 = getelementptr inbounds nuw i8, ptr %.05068, i64 4
  store i8 %76, ptr %77, align 1, !tbaa !47
  %78 = getelementptr inbounds nuw i8, ptr %.05365, i64 1
  %79 = load i8, ptr %.05365, align 1, !tbaa !47
  %80 = getelementptr inbounds nuw i8, ptr %.05068, i64 5
  store i8 %79, ptr %80, align 1, !tbaa !47
  %81 = getelementptr inbounds nuw i8, ptr %.05266, i64 1
  %82 = load i8, ptr %.05266, align 1, !tbaa !47
  %83 = getelementptr inbounds nuw i8, ptr %.05068, i64 6
  store i8 %82, ptr %83, align 1, !tbaa !47
  %84 = getelementptr inbounds nuw i8, ptr %.05167, i64 1
  %85 = load i8, ptr %.05167, align 1, !tbaa !47
  %86 = getelementptr inbounds nuw i8, ptr %.05068, i64 7
  store i8 %85, ptr %86, align 1, !tbaa !47
  %87 = getelementptr inbounds nuw i8, ptr %.05068, i64 8
  %88 = add nuw nsw i32 %.069, 1
  %89 = load i32, ptr %5, align 4, !tbaa !42
  %90 = icmp slt i32 %88, %89
  br i1 %90, label %.lr.ph, label %._crit_edge.loopexit, !llvm.loop !161

._crit_edge.loopexit:                             ; preds = %.lr.ph
  %.pre76 = load i32, ptr %8, align 4, !tbaa !42
  br label %._crit_edge

._crit_edge:                                      ; preds = %._crit_edge.loopexit, %24
  %91 = phi i32 [ %.pre76, %._crit_edge.loopexit ], [ %25, %24 ]
  %92 = phi i32 [ %89, %._crit_edge.loopexit ], [ %26, %24 ]
  %indvars.iv.next = add nsw i64 %indvars.iv, 1
  %93 = sext i32 %91 to i64
  %.not.not = icmp slt i64 %indvars.iv, %93
  br i1 %.not.not, label %24, label %._crit_edge74

._crit_edge74:                                    ; preds = %._crit_edge, %13
  call void @__kmpc_for_static_fini(ptr nonnull @1, i32 %15)
  call void @llvm.lifetime.end.p0(i64 4, ptr nonnull %10) #6
  call void @llvm.lifetime.end.p0(i64 4, ptr nonnull %9) #6
  call void @llvm.lifetime.end.p0(i64 4, ptr nonnull %8) #6
  call void @llvm.lifetime.end.p0(i64 4, ptr nonnull %7) #6
  br label %94

94:                                               ; preds = %._crit_edge74, %6
  ret void
}